(lp0
(lp1
(lp2
cpygame
__rect_constructor
p3
(I507
I333
I100
I50
tp4
Rp5
aS'NAND'
p6
a(lp7
aI00
aI0
aaa(lp8
(lp9
g3
(I388
I291
I25
I26
tp10
Rp11
aS'SWITCH'
p12
a(lp13
aI00
aI0
aa(lp14
g3
(I368
I379
I25
I26
tp15
Rp16
ag12
a(lp17
aI00
aI1
aaa(lp18
a(lp19
aI2
a.