(lp0
(lp1
(lp2
Nacpygame
__rect_constructor
p3
(I260
I191
I100
I50
tp4
Rp5
aS'NOT'
p6
a(lp7
aI00
aI0
aa(lp8
Nag3
(I193
I311
I100
I50
tp9
Rp10
ag6
a(lp11
aI01
aI1
aa(lp12
Nag3
(I555
I355
I100
I50
tp13
Rp14
aS'AND'
p15
a(lp16
aI00
aI2
aa(lp17
Nag3
(I559
I462
I100
I50
tp18
Rp19
ag15
a(lp20
aI00
aI3
aa(lp21
Nag3
(I572
I560
I100
I50
tp22
Rp23
ag15
a(lp24
aI00
aI4
aa(lp25
Nag3
(I569
I660
I100
I50
tp26
Rp27
ag15
a(lp28
aI00
aI5
aa(lp29
Nag3
(I726
I523
I100
I50
tp30
Rp31
aS'OR'
p32
a(lp33
aI00
aI6
aaa(lp34
(lp35
(lp36
I4
a(S'SWITCH'
p37
I0
tp38
a(I162
I153
tp39
aa(lp40
I0
a(g6
I0
tp41
a(I270
I216
tp42
aaS'LINE'
p43
aI0
aI01
a(lp44
I0
aaa(lp45
(lp46
I4
a(g37
I1
tp47
a(I163
I266
tp48
aa(lp49
I0
a(g6
I1
tp50
a(I203
I336
tp51
aag43
aI1
aI00
a(lp52
I1
aaa(lp53
(lp54
I4
a(g37
I0
tp55
a(I162
I153
tp56
aa(lp57
I2
a(g15
I3
tp58
a(I569
I498
tp59
aag43
aI2
aI01
a(lp60
I2
aI3
aaa(lp61
(lp62
I4
a(g37
I0
tp63
ag56
aa(lp64
I2
a(g15
I5
tp65
a(I579
I696
tp66
aag43
aI3
aI01
a(lp67
I2
aI3
aI4
aaa(lp68
(lp69
I1
a(g6
I0
tp70
a(I350
I216
tp71
aa(lp72
I3
a(g15
I2
tp73
a(I565
I367
tp74
aag43
aI4
aI00
a(lp75
I5
aI6
aaa(lp76
(lp77
I1
a(g6
I0
tp78
ag71
aa(lp79
I3
a(g15
I4
tp80
a(I582
I572
tp81
aag43
aI5
aI00
a(lp82
I5
aI6
aI7
aaa(lp83
(lp84
I4
a(g37
I1
tp85
a(I163
I266
tp86
aa(lp87
I2
a(g15
I4
tp88
a(I582
I596
tp89
aag43
aI6
aI00
a(lp90
I8
aI9
aaa(lp91
(lp92
I4
a(g37
I1
tp93
ag86
aa(lp94
I3
a(g15
I5
tp95
a(I579
I672
tp96
aag43
aI7
aI00
a(lp97
I8
aI9
aI10
aaa(lp98
(lp99
I1
a(g6
I1
tp100
a(I283
I336
tp101
aa(lp102
I2
a(g15
I2
tp103
a(I565
I391
tp104
aag43
aI8
aI01
a(lp105
I11
aI12
aaa(lp106
(lp107
I1
a(g6
I1
tp108
ag101
aa(lp109
I3
a(g15
I3
tp110
a(I569
I474
tp111
aag43
aI9
aI01
a(lp112
I11
aI12
aI13
aaa(lp113
(lp114
I4
a(g37
I2
tp115
a(I166
I426
tp116
aa(lp117
I2
a(g15
I2
tp118
a(I565
I391
tp119
aag43
aI10
aI00
a(lp120
I14
aaa(lp121
(lp122
I4
a(g37
I3
tp123
a(I163
I535
tp124
aa(lp125
I2
a(g15
I3
tp126
a(I569
I498
tp127
aag43
aI11
aI00
a(lp128
I15
aaa(lp129
(lp130
I4
a(g37
I4
tp131
a(I161
I636
tp132
aa(lp133
I2
a(g15
I4
tp134
a(I582
I596
tp135
aag43
aI12
aI00
a(lp136
I16
aaa(lp137
(lp138
I4
a(g37
I5
tp139
a(I164
I741
tp140
aa(lp141
I2
a(g15
I5
tp142
a(I579
I696
tp143
aag43
aI13
aI01
a(lp144
I17
aaa(lp145
(lp146
I1
a(g15
I2
tp147
a(I645
I380
tp148
aa(lp149
I3
a(g32
I6
tp150
a(I736
I535
tp151
aag43
aI14
aI00
a(lp152
aa(lp153
(lp154
I1
a(g15
I3
tp155
a(I649
I487
tp156
aa(lp157
I3
a(g32
I6
tp158
a(I736
I535
tp159
aag43
aI15
aI00
a(lp160
aa(lp161
(lp162
I1
a(g15
I4
tp163
a(I662
I585
tp164
aa(lp165
I2
a(g32
I6
tp166
a(I736
I559
tp167
aag43
aI16
aI00
a(lp168
aa(lp169
(lp170
I1
a(g15
I5
tp171
a(I659
I685
tp172
aa(lp173
I2
a(g32
I6
tp174
a(I736
I559
tp175
aag43
aI17
aI00
a(lp176
aa(lp177
(lp178
I1
a(g32
I6
tp179
a(I816
I548
tp180
aa(lp181
I5
a(S'LIGHT'
p182
I0
tp183
a(I928
I548
tp184
aag43
aI18
aI00
a(lp185
aaa(lp186
(lp187
Nag3
(I150
I140
I25
I26
tp188
Rp189
ag37
a(lp190
aI01
aI0
aa(lp191
Nag3
(I151
I253
I25
I26
tp192
Rp193
ag37
a(lp194
aI00
aI1
aa(lp195
Nag3
(I154
I413
I25
I26
tp196
Rp197
ag37
a(lp198
aI00
aI2
aa(lp199
Nag3
(I151
I522
I25
I26
tp200
Rp201
ag37
a(lp202
aI00
aI3
aa(lp203
Nag3
(I149
I623
I25
I26
tp204
Rp205
ag37
a(lp206
aI00
aI4
aa(lp207
Nag3
(I152
I728
I25
I26
tp208
Rp209
ag37
a(lp210
aI01
aI5
aaa(lp211
(lp212
Nag3
(I916
I536
I24
I24
tp213
Rp214
ag182
a(lp215
aI00
aI0
aaa(lp216
a(lp217
(lp218
Nag3
(I154
I207
I19
I19
tp219
Rp220
aS'NODE'
p221
a(lp222
aI00
aI0
aI1
aa(lp223
Nag3
(I154
I327
I19
I19
tp224
Rp225
ag221
a(lp226
aI00
aI1
aI1
aa(lp227
Nag3
(I420
I144
I19
I19
tp228
Rp229
ag221
a(lp230
aI00
aI2
aI2
aa(lp231
Nag3
(I420
I489
I19
I19
tp232
Rp233
ag221
a(lp234
aI00
aI3
aI2
aa(lp235
Nag3
(I419
I687
I19
I19
tp236
Rp237
ag221
a(lp238
aI00
aI4
aI1
aa(lp239
Nag3
(I401
I207
I19
I19
tp240
Rp241
ag221
a(lp242
aI00
aI5
aI2
aa(lp243
Nag3
(I401
I358
I19
I19
tp244
Rp245
ag221
a(lp246
aI00
aI6
aI2
aa(lp247
Nag3
(I401
I563
I19
I19
tp248
Rp249
ag221
a(lp250
aI00
aI7
aI1
aa(lp251
Nag3
(I362
I257
I19
I19
tp252
Rp253
ag221
a(lp254
aI00
aI8
aI2
aa(lp255
Nag3
(I362
I587
I19
I19
tp256
Rp257
ag221
a(lp258
aI00
aI9
aI2
aa(lp259
Nag3
(I362
I663
I19
I19
tp260
Rp261
ag221
a(lp262
aI00
aI10
aI1
aa(lp263
Nag3
(I308
I327
I19
I19
tp264
Rp265
ag221
a(lp266
aI00
aI11
aI2
aa(lp267
Nag3
(I308
I382
I19
I19
tp268
Rp269
ag221
a(lp270
aI00
aI12
aI2
aa(lp271
Nag3
(I308
I465
I19
I19
tp272
Rp273
ag221
a(lp274
aI00
aI13
aI1
aa(lp275
Nag3
(I459
I417
I19
I19
tp276
Rp277
ag221
a(lp278
aI00
aI14
aI1
aa(lp279
Nag3
(I458
I526
I19
I19
tp280
Rp281
ag221
a(lp282
aI00
aI15
aI1
aa(lp283
Nag3
(I461
I627
I19
I19
tp284
Rp285
ag221
a(lp286
aI00
aI16
aI1
aa(lp287
Nag3
(I463
I732
I19
I19
tp288
Rp289
ag221
a(lp290
aI00
aI17
aI1
aaa.