(lp0
(lp1
(lp2
Nacpygame
__rect_constructor
p3
(I350
I220
I100
I50
tp4
Rp5
aS'XOR'
p6
a(lp7
aI01
aI0
aa(lp8
Nag3
(I606
I308
I100
I50
tp9
Rp10
ag6
a(lp11
aI00
aI1
aa(lp12
Nag3
(I429
I406
I100
I50
tp13
Rp14
aS'AND'
p15
a(lp16
aI01
aI2
aa(lp17
Nag3
(I427
I548
I100
I50
tp18
Rp19
ag15
a(lp20
aI00
aI3
aa(lp21
Nag3
(I616
I473
I100
I50
tp22
Rp23
aS'OR'
p24
a(lp25
aI01
aI4
aaa(lp26
(lp27
(lp28
I4
a(S'SWITCH'
p29
I0
tp30
a(I193
I231
tp31
aa(lp32
I3
a(g15
I3
tp33
a(I437
I560
tp34
aaS'LINE'
p35
aI0
aI00
a(lp36
I0
aI1
aaa(lp37
(lp38
I4
a(g29
I0
tp39
a(I193
I231
tp40
aa(lp41
I3
a(g6
I0
tp42
a(I360
I232
tp43
aag35
aI1
aI00
a(lp44
aa(lp45
(lp46
I4
a(g29
I1
tp47
a(I192
I386
tp48
aa(lp49
I2
a(g6
I0
tp50
a(I360
I256
tp51
aag35
aI2
aI01
a(lp52
I2
aI3
aaa(lp53
(lp54
I4
a(g29
I1
tp55
a(I192
I386
tp56
aa(lp57
I2
a(g15
I3
tp58
a(I437
I584
tp59
aag35
aI3
aI01
a(lp60
I4
aI5
aaa(lp61
(lp62
I4
a(g29
I2
tp63
a(I193
I656
tp64
aa(lp65
I2
a(g15
I2
tp66
a(I439
I442
tp67
aag35
aI4
aI01
a(lp68
I6
aI7
aaa(lp69
(lp70
I4
a(g29
I2
tp71
a(I193
I656
tp72
aa(lp73
I2
a(g6
I1
tp74
a(I616
I344
tp75
aag35
aI5
aI01
a(lp76
I8
aI9
aaa(lp77
(lp78
I1
a(g6
I0
tp79
a(I440
I245
tp80
aa(lp81
I3
a(g15
I2
tp82
a(I439
I418
tp83
aag35
aI6
aI01
a(lp84
aa(lp85
(lp86
I1
a(g6
I0
tp87
a(I440
I245
tp88
aa(lp89
I3
a(g6
I1
tp90
a(I616
I320
tp91
aag35
aI7
aI01
a(lp92
aa(lp93
(lp94
I1
a(g15
I2
tp95
a(I519
I431
tp96
aa(lp97
I3
a(g24
I4
tp98
a(I626
I485
tp99
aag35
aI8
aI01
a(lp100
aa(lp101
(lp102
I1
a(g15
I3
tp103
a(I517
I573
tp104
aa(lp105
I2
a(g24
I4
tp106
a(I626
I509
tp107
aag35
aI9
aI00
a(lp108
aa(lp109
(lp110
I1
a(g24
I4
tp111
a(I706
I498
tp112
aa(lp113
I5
a(S'LIGHT'
p114
I0
tp115
a(I801
I399
tp116
aag35
aI10
aI01
a(lp117
I10
aI11
aaa(lp118
(lp119
I1
a(g6
I1
tp120
a(I696
I333
tp121
aa(lp122
I5
a(g114
I1
tp123
a(I929
I407
tp124
aag35
aI11
aI00
a(lp125
I12
aaaa(lp126
(lp127
Nag3
(I181
I218
I25
I26
tp128
Rp129
ag29
a(lp130
aI00
aI0
aa(lp131
Nag3
(I180
I373
I25
I26
tp132
Rp133
ag29
a(lp134
aI01
aI1
aa(lp135
Nag3
(I181
I643
I25
I26
tp136
Rp137
ag29
a(lp138
aI01
aI2
aaa(lp139
(lp140
Nag3
(I789
I387
I24
I24
tp141
Rp142
ag114
a(lp143
aI01
aI0
aa(lp144
Nag3
(I917
I395
I24
I24
tp145
Rp146
ag114
a(lp147
aI00
aI1
aaa(lp148
a(lp149
(lp150
Nag3
(I298
I222
I19
I19
tp151
Rp152
aS'NODE'
p153
a(lp154
aI00
aI0
aa(lp155
Nag3
(I298
I552
I19
I19
tp156
Rp157
ag153
a(lp158
aI00
aI1
aa(lp159
Nag3
(I245
I377
I19
I19
tp160
Rp161
ag153
a(lp162
aI00
aI2
aa(lp163
Nag3
(I246
I247
I19
I19
tp164
Rp165
ag153
a(lp166
aI00
aI3
aa(lp167
Nag3
(I245
I377
I19
I19
tp168
Rp169
ag153
a(lp170
aI00
aI4
aa(lp171
Nag3
(I245
I575
I19
I19
tp172
Rp173
ag153
a(lp174
aI00
aI5
aa(lp175
Nag3
(I339
I647
I19
I19
tp176
Rp177
ag153
a(lp178
aI00
aI6
aa(lp179
Nag3
(I339
I433
I19
I19
tp180
Rp181
ag153
a(lp182
aI00
aI7
aa(lp183
Nag3
(I338
I648
I19
I19
tp184
Rp185
ag153
a(lp186
aI00
aI8
aa(lp187
Nag3
(I338
I333
I19
I19
tp188
Rp189
ag153
a(lp190
aI00
aI9
aa(lp191
Nag3
(I742
I489
I19
I19
tp192
Rp193
ag153
a(lp194
aI00
aI10
aa(lp195
Nag3
(I742
I390
I19
I19
tp196
Rp197
ag153
a(lp198
aI00
aI11
aa(lp199
Nag3
(I920
I325
I19
I19
tp200
Rp201
ag153
a(lp202
aI00
aI12
aaa.