(lp0
(lp1
(lp2
Nacpygame
__rect_constructor
p3
(I348
I241
I100
I50
tp4
Rp5
aS'XOR'
p6
a(lp7
aI00
aI0
aa(lp8
Nag3
(I520
I282
I100
I50
tp9
Rp10
ag6
a(lp11
aI00
aI1
aa(lp12
Nag3
(I428
I366
I100
I50
tp13
Rp14
aS'AND'
p15
a(lp16
aI00
aI2
aa(lp17
Nag3
(I413
I449
I100
I50
tp18
Rp19
ag15
a(lp20
aI00
aI3
aa(lp21
Nag3
(I572
I410
I100
I50
tp22
Rp23
aS'OR'
p24
a(lp25
aI00
aI4
aaa(lp26
(lp27
(lp28
I4
a(S'SWITCH'
p29
I0
tp30
a(I197
I218
tp31
aa(lp32
I3
a(g15
I3
tp33
a(I423
I461
tp34
aaS'LINE'
p35
aI0
aI00
a(lp36
I0
aI1
aI2
aaa(lp37
(lp38
I4
a(g29
I0
tp39
a(I197
I218
tp40
aa(lp41
I3
a(g6
I0
tp42
a(I358
I253
tp43
aag35
aI1
aI00
a(lp44
I0
aI1
aaa(lp45
(lp46
I1
a(g6
I0
tp47
a(I438
I266
tp48
aa(lp49
I3
a(g6
I1
tp50
a(I530
I294
tp51
aag35
aI2
aI00
a(lp52
aa(lp53
(lp54
I4
a(g29
I1
tp55
a(I196
I306
tp56
aa(lp57
I2
a(g6
I0
tp58
a(I358
I277
tp59
aag35
aI3
aI00
a(lp60
I3
aI4
aaa(lp61
(lp62
I4
a(g29
I1
tp63
a(I196
I306
tp64
aa(lp65
I2
a(g15
I3
tp66
a(I423
I485
tp67
aag35
aI4
aI00
a(lp68
I3
aI5
aaa(lp69
(lp70
I1
a(g6
I0
tp71
a(I438
I266
tp72
aa(lp73
I3
a(g15
I2
tp74
a(I438
I378
tp75
aag35
aI5
aI00
a(lp76
aa(lp77
(lp78
I4
a(g29
I2
tp79
a(I193
I548
tp80
aa(lp81
I2
a(g15
I2
tp82
a(I438
I402
tp83
aag35
aI6
aI00
a(lp84
I6
aI7
aaa(lp85
(lp86
I1
a(g15
I2
tp87
a(I518
I391
tp88
aa(lp89
I3
a(g24
I4
tp90
a(I582
I422
tp91
aag35
aI9
aI00
a(lp92
aa(lp93
(lp94
I1
a(g15
I3
tp95
a(I503
I474
tp96
aa(lp97
I2
a(g24
I4
tp98
a(I582
I446
tp99
aag35
aI10
aI00
a(lp100
aa(lp101
(lp102
I1
a(g24
I4
tp103
a(I662
I435
tp104
aa(lp105
I5
a(S'LIGHT'
p106
I0
tp107
a(I769
I435
tp108
aag35
aI11
aI00
a(lp109
aa(lp110
(lp111
I1
a(g6
I1
tp112
a(I610
I307
tp113
aa(lp114
I5
a(g106
I1
tp115
a(I828
I435
tp116
aag35
aI12
aI00
a(lp117
I10
aaa(lp118
(lp119
I4
a(g29
I2
tp120
ag80
aa(lp121
I2
a(g6
I1
tp122
a(I530
I318
tp123
aaS'LINE'
p124
aI13
aI00
a(lp125
I6
aI7
aI11
aaaa(lp126
(lp127
Nag3
(I185
I205
I25
I26
tp128
Rp129
ag29
a(lp130
aI00
aI0
aa(lp131
Nag3
(I184
I293
I25
I26
tp132
Rp133
ag29
a(lp134
aI00
aI1
aa(lp135
Nag3
(I181
I535
I25
I26
tp136
Rp137
ag29
a(lp138
aI00
aI2
aaa(lp139
(lp140
Nag3
(I757
I423
I24
I24
tp141
Rp142
ag106
a(lp143
aI00
aI0
aa(lp144
Nag3
(I816
I423
I24
I24
tp145
Rp146
ag106
a(lp147
aI00
aI1
aaa(lp148
a(lp149
(lp150
Nag3
(I262
I209
I19
I19
tp151
Rp152
aS'NODE'
p153
a(lp154
aI00
aI0
aI2
aa(lp155
Nag3
(I262
I244
I19
I19
tp156
Rp157
ag153
a(lp158
aI00
aI1
aI2
aa(lp159
Nag3
(I262
I452
I19
I19
tp160
Rp161
ag153
a(lp162
aI00
aI2
aI1
aa(lp163
Nag3
(I311
I297
I19
I19
tp164
Rp165
ag153
a(lp166
aI00
aI3
aI2
aa(lp167
Nag3
(I311
I268
I19
I19
tp168
Rp169
ag153
a(lp170
aI00
aI4
aI1
aa(lp171
Nag3
(I311
I476
I19
I19
tp172
Rp173
ag153
a(lp174
aI00
aI5
aI1
aa(lp175
Nag3
(I356
I539
I19
I19
tp176
Rp177
ag153
a(lp178
aI00
aI6
aI2
aa(lp179
Nag3
(I356
I393
I19
I19
tp180
Rp181
ag153
a(lp182
aI00
aI7
aI2
aa(lp183
Nag3
(I819
I298
I19
I19
tp184
Rp185
ag153
a(lp186
aI00
aI10
aI1
aa(lp187
Nag3
(I356
I309
I19
I19
tp188
Rp189
aS'NODE'
p190
a(lp191
aI00
aI11
aI1
aaa.